target datalayout = "e-m:e-p270:32:32-p271:32:32-p272:64:64-i64:64-i128:128-f80:128-n8:16:32:64-S128"
target triple = "x86_64-pc-linux-gnu"

%class.DataLayout = type { %union.anon, [1 x i64] }
%union.anon = type { i64 }
%class.ProfileData = type { ptr, ptr }

@.str.22 = private unnamed_addr constant [22 x i8] c"count(%u) entries(%u)\00", align 1
@.str.26 = private unnamed_addr constant [8 x i8] c"RetData\00", align 1
@.str.27 = private unnamed_addr constant [36 x i8] c"bci(%d: count(%u) displacement(%d))\00", align 1

; Function Attrs: mustprogress nounwind uwtable
define linkonce_odr hidden noundef i64 @_ZNK10DataLayout7cell_atEi(ptr noundef nonnull align 8 dereferenceable(16) %0, i32 noundef %1) #1 comdat align 2 {
  %3 = alloca ptr, align 8
  %4 = alloca i32, align 4
  store ptr %0, ptr %3, align 8
  store i32 %1, ptr %4, align 4
  %5 = load ptr, ptr %3, align 8
  %6 = getelementptr inbounds %class.DataLayout, ptr %5, i32 0, i32 1
  %7 = load i32, ptr %4, align 4
  %8 = sext i32 %7 to i64
  %9 = getelementptr inbounds [1 x i64], ptr %6, i64 0, i64 %8
  %10 = load i64, ptr %9, align 8
  ret i64 %10
}

; Function Attrs: mustprogress nounwind uwtable
define linkonce_odr hidden noundef ptr @_ZNK11ProfileData4dataEv(ptr noundef nonnull align 8 dereferenceable(16) %0) #1 comdat align 2 {
  %2 = alloca ptr, align 8
  store ptr %0, ptr %2, align 8
  %3 = load ptr, ptr %2, align 8
  %4 = getelementptr inbounds %class.ProfileData, ptr %3, i32 0, i32 1
  %5 = load ptr, ptr %4, align 8
  ret ptr %5
}

; Function Attrs: mustprogress nounwind uwtable
define linkonce_odr hidden noundef i32 @_ZN7RetData27bci_displacement_cell_indexEj(i32 noundef %0) #1 comdat align 2 {
  %2 = alloca i32, align 4
  store i32 %0, ptr %2, align 4
  %3 = load i32, ptr %2, align 4
  %4 = mul i32 %3, 3
  %5 = add i32 3, %4
  ret i32 %5
}

; Function Attrs: mustprogress nounwind uwtable
define linkonce_odr hidden noundef i32 @_ZNK11ProfileData7uint_atEi(ptr noundef nonnull align 8 dereferenceable(16) %0, i32 noundef %1) #1 comdat align 2 {
  %3 = alloca ptr, align 8
  %4 = alloca i32, align 4
  store ptr %0, ptr %3, align 8
  store i32 %1, ptr %4, align 4
  %5 = load ptr, ptr %3, align 8
  %6 = load i32, ptr %4, align 4
  %7 = call noundef i64 @_ZNK11ProfileData9intptr_atEi(ptr noundef nonnull align 8 dereferenceable(16) %5, i32 noundef %6)
  %8 = trunc i64 %7 to i32
  ret i32 %8
}

; Function Attrs: mustprogress nounwind uwtable
define linkonce_odr hidden noundef i32 @_ZN7RetData20bci_count_cell_indexEj(i32 noundef %0) #1 comdat align 2 {
  %2 = alloca i32, align 4
  store i32 %0, ptr %2, align 4
  %3 = load i32, ptr %2, align 4
  %4 = mul i32 %3, 3
  %5 = add i32 2, %4
  ret i32 %5
}

; Function Attrs: mustprogress nounwind uwtable
define linkonce_odr hidden noundef i64 @_ZNK11ProfileData9intptr_atEi(ptr noundef nonnull align 8 dereferenceable(16) %0, i32 noundef %1) #1 comdat align 2 {
  %3 = alloca ptr, align 8
  %4 = alloca i32, align 4
  store ptr %0, ptr %3, align 8
  store i32 %1, ptr %4, align 4
  %5 = load ptr, ptr %3, align 8
  %6 = call noundef ptr @_ZNK11ProfileData4dataEv(ptr noundef nonnull align 8 dereferenceable(16) %5)
  %7 = load i32, ptr %4, align 4
  %8 = call noundef i64 @_ZNK10DataLayout7cell_atEi(ptr noundef nonnull align 8 dereferenceable(16) %6, i32 noundef %7)
  ret i64 %8
}

; Function Attrs: mustprogress nounwind uwtable
define linkonce_odr hidden noundef i32 @_ZNK11ProfileData6int_atEi(ptr noundef nonnull align 8 dereferenceable(16) %0, i32 noundef %1) #1 comdat align 2 {
  %3 = alloca ptr, align 8
  %4 = alloca i32, align 4
  store ptr %0, ptr %3, align 8
  store i32 %1, ptr %4, align 4
  %5 = load ptr, ptr %3, align 8
  %6 = load i32, ptr %4, align 4
  %7 = call noundef i64 @_ZNK11ProfileData9intptr_atEi(ptr noundef nonnull align 8 dereferenceable(16) %5, i32 noundef %6)
  %8 = trunc i64 %7 to i32
  ret i32 %8
}

; Function Attrs: mustprogress nounwind uwtable
define linkonce_odr hidden noundef i32 @_ZN7RetData14bci_cell_indexEj(i32 noundef %0) #1 comdat align 2 {
  %2 = alloca i32, align 4
  store i32 %0, ptr %2, align 4
  %3 = load i32, ptr %2, align 4
  %4 = mul i32 %3, 3
  %5 = add i32 1, %4
  ret i32 %5
}

; Function Attrs: mustprogress nounwind uwtable
define linkonce_odr hidden noundef i32 @_ZNK7RetData16bci_displacementEj(ptr noundef nonnull align 8 dereferenceable(16) %0, i32 noundef %1) #1 comdat align 2 {
  %3 = alloca ptr, align 8
  %4 = alloca i32, align 4
  store ptr %0, ptr %3, align 8
  store i32 %1, ptr %4, align 4
  %5 = load ptr, ptr %3, align 8
  %6 = load i32, ptr %4, align 4
  %7 = call noundef i32 @_ZN7RetData27bci_displacement_cell_indexEj(i32 noundef %6)
  %8 = call noundef i32 @_ZNK11ProfileData6int_atEi(ptr noundef nonnull align 8 dereferenceable(16) %5, i32 noundef %7)
  ret i32 %8
}

; Function Attrs: mustprogress nounwind uwtable
define linkonce_odr hidden noundef i32 @_ZNK7RetData9bci_countEj(ptr noundef nonnull align 8 dereferenceable(16) %0, i32 noundef %1) #1 comdat align 2 {
  %3 = alloca ptr, align 8
  %4 = alloca i32, align 4
  store ptr %0, ptr %3, align 8
  store i32 %1, ptr %4, align 4
  %5 = load ptr, ptr %3, align 8
  %6 = load i32, ptr %4, align 4
  %7 = call noundef i32 @_ZN7RetData20bci_count_cell_indexEj(i32 noundef %6)
  %8 = call noundef i32 @_ZNK11ProfileData7uint_atEi(ptr noundef nonnull align 8 dereferenceable(16) %5, i32 noundef %7)
  ret i32 %8
}

; Function Attrs: mustprogress nounwind uwtable
define hidden void @_ZNK11ProfileData3tabEP12outputStreamb(ptr noundef nonnull align 8 dereferenceable(16) %0, ptr noundef %1, i1 noundef zeroext %2) #1 align 2 {
  %4 = alloca ptr, align 8
  %5 = alloca ptr, align 8
  %6 = alloca i8, align 1
  store ptr %0, ptr %4, align 8
  store ptr %1, ptr %5, align 8
  %7 = zext i1 %2 to i8
  store i8 %7, ptr %6, align 1
  %8 = load ptr, ptr %5, align 8
  %9 = load i8, ptr %6, align 1
  %10 = trunc i8 %9 to i1
  %11 = select i1 %10, i32 16, i32 36
  %12 = call noundef i32 @_ZN12outputStream7fill_toEi(ptr noundef nonnull align 8 dereferenceable(56) %8, i32 noundef %11)
  ret void
}

; Function Attrs: mustprogress nounwind uwtable
define linkonce_odr hidden noundef i32 @_ZNK11CounterData5countEv(ptr noundef nonnull align 8 dereferenceable(16) %0) #1 comdat align 2 {
  %2 = alloca ptr, align 8
  %3 = alloca i64, align 8
  store ptr %0, ptr %2, align 8
  %4 = load ptr, ptr %2, align 8
  %5 = call noundef i64 @_ZNK11ProfileData9intptr_atEi(ptr noundef nonnull align 8 dereferenceable(16) %4, i32 noundef 0)
  store i64 %5, ptr %3, align 8
  %6 = load i64, ptr %3, align 8
  %7 = icmp sgt i64 %6, 2147483647
  br i1 %7, label %8, label %9

8:                                                ; preds = %1
  store i64 2147483647, ptr %3, align 8
  br label %14

9:                                                ; preds = %1
  %10 = load i64, ptr %3, align 8
  %11 = icmp slt i64 %10, -2147483648
  br i1 %11, label %12, label %13

12:                                               ; preds = %9
  store i64 -2147483648, ptr %3, align 8
  br label %13

13:                                               ; preds = %12, %9
  br label %14

14:                                               ; preds = %13, %8
  %15 = load i64, ptr %3, align 8
  %16 = trunc i64 %15 to i32
  ret i32 %16
}

; Function Attrs: mustprogress nounwind uwtable
define linkonce_odr hidden noundef i32 @_ZNK7RetData3bciEj(ptr noundef nonnull align 8 dereferenceable(16) %0, i32 noundef %1) #1 comdat align 2 {
  %3 = alloca ptr, align 8
  %4 = alloca i32, align 4
  store ptr %0, ptr %3, align 8
  store i32 %1, ptr %4, align 4
  %5 = load ptr, ptr %3, align 8
  %6 = load i32, ptr %4, align 4
  %7 = call noundef i32 @_ZN7RetData14bci_cell_indexEj(i32 noundef %6)
  %8 = call noundef i32 @_ZNK11ProfileData6int_atEi(ptr noundef nonnull align 8 dereferenceable(16) %5, i32 noundef %7)
  ret i32 %8
}

; Function Attrs: mustprogress nounwind uwtable
define linkonce_odr hidden noundef i32 @_ZN7RetData9row_limitEv() #1 comdat align 2 {
  ret i32 2
}

; Function Attrs: mustprogress nounwind uwtable
define hidden void @_ZNK7RetData13print_data_onEP12outputStreamPKc(ptr noundef nonnull align 8 dereferenceable(16) %0, ptr noundef %1, ptr noundef %2) unnamed_addr #1 align 2 {
  %4 = alloca ptr, align 8
  %5 = alloca ptr, align 8
  %6 = alloca ptr, align 8
  %7 = alloca i32, align 4
  %8 = alloca i32, align 4
  store ptr %0, ptr %4, align 8
  store ptr %1, ptr %5, align 8
  store ptr %2, ptr %6, align 8
  %9 = load ptr, ptr %4, align 8
  %10 = load ptr, ptr %5, align 8
  %11 = load ptr, ptr %6, align 8
  call void @_ZNK11ProfileData12print_sharedEP12outputStreamPKcS3_(ptr noundef nonnull align 8 dereferenceable(16) %9, ptr noundef %10, ptr noundef @.str.26, ptr noundef %11)
  store i32 0, ptr %8, align 4
  store i32 0, ptr %7, align 4
  br label %12

12:                                               ; preds = %24, %3
  %13 = load i32, ptr %7, align 4
  %14 = call noundef i32 @_ZN7RetData9row_limitEv()
  %15 = icmp ult i32 %13, %14
  br i1 %15, label %16, label %27

16:                                               ; preds = %12
  %17 = load i32, ptr %7, align 4
  %18 = call noundef i32 @_ZNK7RetData3bciEj(ptr noundef nonnull align 8 dereferenceable(16) %9, i32 noundef %17)
  %19 = icmp ne i32 %18, -1
  br i1 %19, label %20, label %23

20:                                               ; preds = %16
  %21 = load i32, ptr %8, align 4
  %22 = add nsw i32 %21, 1
  store i32 %22, ptr %8, align 4
  br label %23

23:                                               ; preds = %20, %16
  br label %24

24:                                               ; preds = %23
  %25 = load i32, ptr %7, align 4
  %26 = add i32 %25, 1
  store i32 %26, ptr %7, align 4
  br label %12, !llvm.loop !19

27:                                               ; preds = %12
  %28 = load ptr, ptr %5, align 8
  %29 = call noundef i32 @_ZNK11CounterData5countEv(ptr noundef nonnull align 8 dereferenceable(16) %9)
  %30 = load i32, ptr %8, align 4
  call void (ptr, ptr, ...) @_ZN12outputStream8print_crEPKcz(ptr noundef nonnull align 8 dereferenceable(56) %28, ptr noundef @.str.22, i32 noundef %29, i32 noundef %30)
  store i32 0, ptr %7, align 4
  br label %31

31:                                               ; preds = %49, %27
  %32 = load i32, ptr %7, align 4
  %33 = call noundef i32 @_ZN7RetData9row_limitEv()
  %34 = icmp ult i32 %32, %33
  br i1 %34, label %35, label %52

35:                                               ; preds = %31
  %36 = load i32, ptr %7, align 4
  %37 = call noundef i32 @_ZNK7RetData3bciEj(ptr noundef nonnull align 8 dereferenceable(16) %9, i32 noundef %36)
  %38 = icmp ne i32 %37, -1
  br i1 %38, label %39, label %48

39:                                               ; preds = %35
  %40 = load ptr, ptr %5, align 8
  call void @_ZNK11ProfileData3tabEP12outputStreamb(ptr noundef nonnull align 8 dereferenceable(16) %9, ptr noundef %40, i1 noundef zeroext false)
  %41 = load ptr, ptr %5, align 8
  %42 = load i32, ptr %7, align 4
  %43 = call noundef i32 @_ZNK7RetData3bciEj(ptr noundef nonnull align 8 dereferenceable(16) %9, i32 noundef %42)
  %44 = load i32, ptr %7, align 4
  %45 = call noundef i32 @_ZNK7RetData9bci_countEj(ptr noundef nonnull align 8 dereferenceable(16) %9, i32 noundef %44)
  %46 = load i32, ptr %7, align 4
  %47 = call noundef i32 @_ZNK7RetData16bci_displacementEj(ptr noundef nonnull align 8 dereferenceable(16) %9, i32 noundef %46)
  call void (ptr, ptr, ...) @_ZN12outputStream8print_crEPKcz(ptr noundef nonnull align 8 dereferenceable(56) %41, ptr noundef @.str.27, i32 noundef %43, i32 noundef %45, i32 noundef %47)
  br label %48

48:                                               ; preds = %39, %35
  br label %49

49:                                               ; preds = %48
  %50 = load i32, ptr %7, align 4
  %51 = add i32 %50, 1
  store i32 %51, ptr %7, align 4
  br label %31, !llvm.loop !20

52:                                               ; preds = %31
  ret void
}