; Function Attrs: mustprogress nounwind uwtable
define hidden void @_ZNK7RetData13print_data_onEP12outputStreamPKc(ptr nocapture noundef nonnull readonly align 8 dereferenceable(16) %0, ptr noundef nonnull %1, ptr noundef %2) unnamed_addr #2 align 2 {
  tail call void @_ZNK11ProfileData12print_sharedEP12outputStreamPKcS3_(ptr noundef nonnull align 8 dereferenceable(16) %0, ptr noundef %1, ptr noundef nonnull @.str.26, ptr noundef %2)
  %4 = getelementptr inbounds i8, ptr %0, i64 8
  %5 = load ptr, ptr %4, align 8
  %6 = getelementptr inbounds i8, ptr %5, i64 8
  br label %7

7:                                                ; preds = %3, %7
  %8 = phi i1 [ true, %3 ], [ false, %7 ]
  %indvars.iv = phi i64 [ 1, %3 ], [ 4, %7 ]
  %.020 = phi i32 [ 0, %3 ], [ %spec.select, %7 ]
  %9 = getelementptr inbounds [1 x i64], ptr %6, i64 0, i64 %indvars.iv
  %10 = load i64, ptr %9, align 8
  %11 = and i64 %10, 4294967295
  %.not18 = icmp ne i64 %11, 4294967295
  %12 = zext i1 %.not18 to i32
  %spec.select = add nuw nsw i32 %.020, %12
  br i1 %8, label %7, label %13, !llvm.loop !17

13:                                               ; preds = %7
  %14 = load i64, ptr %6, align 8
  %spec.store.select.i = tail call i64 @llvm.smax.i64(i64 %14, i64 -2147483648)
  %.04.i = tail call i64 @llvm.smin.i64(i64 %spec.store.select.i, i64 2147483647)
  %.0.i = trunc nsw i64 %.04.i to i32
  tail call void (ptr, ptr, ...) @_ZN12outputStream8print_crEPKcz(ptr noundef nonnull align 8 dereferenceable(56) %1, ptr noundef nonnull @.str.22, i32 noundef %.0.i, i32 noundef %spec.select) #20
  br label %15

15:                                               ; preds = %13, %38
  %16 = phi i1 [ true, %13 ], [ false, %38 ]
  %indvars.iv23 = phi i64 [ 0, %13 ], [ 3, %38 ]
  %17 = add nuw nsw i64 %indvars.iv23, 1
  %18 = load ptr, ptr %4, align 8
  %19 = getelementptr inbounds i8, ptr %18, i64 8
  %20 = getelementptr inbounds [1 x i64], ptr %19, i64 0, i64 %17
  %21 = load i64, ptr %20, align 8
  %22 = and i64 %21, 4294967295
  %.not = icmp eq i64 %22, 4294967295
  br i1 %.not, label %38, label %23

23:                                               ; preds = %15
  %24 = tail call noundef i32 @_ZN12outputStream7fill_toEi(ptr noundef nonnull align 8 dereferenceable(56) %1, i32 noundef 36) #20
  %25 = load ptr, ptr %4, align 8
  %26 = getelementptr inbounds i8, ptr %25, i64 8
  %27 = getelementptr inbounds [1 x i64], ptr %26, i64 0, i64 %17
  %28 = load i64, ptr %27, align 8
  %29 = trunc i64 %28 to i32
  %30 = add nuw nsw i64 %indvars.iv23, 2
  %31 = getelementptr inbounds [1 x i64], ptr %26, i64 0, i64 %30
  %32 = load i64, ptr %31, align 8
  %33 = trunc i64 %32 to i32
  %34 = add nuw nsw i64 %indvars.iv23, 3
  %35 = getelementptr inbounds [1 x i64], ptr %26, i64 0, i64 %34
  %36 = load i64, ptr %35, align 8
  %37 = trunc i64 %36 to i32
  tail call void (ptr, ptr, ...) @_ZN12outputStream8print_crEPKcz(ptr noundef nonnull align 8 dereferenceable(56) %1, ptr noundef nonnull @.str.27, i32 noundef %29, i32 noundef %33, i32 noundef %37) #20
  br label %38

38:                                               ; preds = %15, %23
  br i1 %16, label %15, label %39, !llvm.loop !18

39:                                               ; preds = %38
  ret void
}